; Function Attrs: mustprogress uwtable
define hidden void @_ZN6Assimp3ASE6Parser10LogWarningEPKc(ptr noundef nonnull readonly align 8 captures(none) dereferenceable(188) %0, ptr noundef %1) local_unnamed_addr #1 align 2 {
  %3 = alloca [2048 x i8], align 16
  call void @llvm.lifetime.start.p0(i64 2048, ptr nonnull %3) #28
  %4 = getelementptr inbounds nuw i8, ptr %0, i64 160
  %5 = load i32, ptr %4, align 8
  %6 = call i32 (ptr, i64, ptr, ...) @snprintf(ptr noundef nonnull dereferenceable(1) %3, i64 noundef 2048, ptr noundef nonnull @.str, i32 noundef %5, ptr noundef %1) #28
  %7 = tail call noundef ptr @_ZN6Assimp13DefaultLogger3getEv()
  call void @_ZN6Assimp6Logger4warnIJRA2048_cEEEvDpOT_(ptr noundef nonnull align 8 dereferenceable(12) %7, ptr noundef nonnull align 1 dereferenceable(2048) %3)
  call void @llvm.lifetime.end.p0(i64 2048, ptr nonnull %3) #28
  ret void
}